; Function Attrs: mustprogress nofree norecurse nosync nounwind willreturn memory(argmem: read) uwtable
define ptr @OSSL_STORE_INFO_get0_data(i32 noundef %0, ptr noundef readonly captures(none) %1) local_unnamed_addr #7 {
  %3 = load i32, ptr %1, align 8, !tbaa !68
  %4 = icmp eq i32 %3, %0
  br i1 %4, label %5, label %8

5:                                                ; preds = %2
  %6 = getelementptr inbounds nuw i8, ptr %1, i64 8
  %7 = load ptr, ptr %6, align 8, !tbaa !8
  br label %8

8:                                                ; preds = %2, %5
  %.0 = phi ptr [ %7, %5 ], [ null, %2 ]
  ret ptr %.0
}